target datalayout = "e-m:e-p270:32:32-p271:32:32-p272:64:64-i64:64-i128:128-f80:128-n8:16:32:64-S128"
target triple = "x86_64-pc-linux-gnu"

%struct.LexState = type { ptr, ptr, %union.TValue, %union.TValue, ptr, ptr, i32, i32, i32, %struct.SBuf, ptr, ptr, i32, i32, ptr, ptr, ptr, ptr, i32, i32, ptr, i32, i32, i32, i32 }
%union.TValue = type { i64 }
%struct.SBuf = type { ptr, ptr, ptr, %struct.MRef }
%struct.MRef = type { i64 }
%struct.lua_State = type { %struct.GCRef, i8, i8, i8, i8, %struct.MRef, %struct.GCRef, ptr, ptr, %struct.MRef, %struct.MRef, %struct.GCRef, %struct.GCRef, ptr, i32 }
%struct.GCRef = type { i64 }

@.str = private unnamed_addr constant [5 x i8] c"\1BLua\00", align 1
@.str.3 = private unnamed_addr constant [24 x i8] c"store to dead GC object\00", align 1

; Function Attrs: alwaysinline nounwind uwtable
define internal void @checklivetv(ptr noundef %0, ptr noundef %1, ptr noundef %2) #2 {
  %4 = alloca ptr, align 8
  %5 = alloca ptr, align 8
  %6 = alloca ptr, align 8
  store ptr %0, ptr %4, align 8, !tbaa !4
  store ptr %1, ptr %5, align 8, !tbaa !45
  store ptr %2, ptr %6, align 8, !tbaa !73
  ret void
}

; Function Attrs: alwaysinline nounwind uwtable
define internal void @setgcVraw(ptr noundef %0, ptr noundef %1, i32 noundef %2) #2 {
  %4 = alloca ptr, align 8
  %5 = alloca ptr, align 8
  %6 = alloca i32, align 4
  store ptr %0, ptr %4, align 8, !tbaa !45
  store ptr %1, ptr %5, align 8, !tbaa !79
  store i32 %2, ptr %6, align 4, !tbaa !11
  %7 = load ptr, ptr %5, align 8, !tbaa !79
  %8 = ptrtoint ptr %7 to i64
  %9 = load i32, ptr %6, align 4, !tbaa !11
  %10 = zext i32 %9 to i64
  %11 = shl i64 %10, 47
  %12 = or i64 %8, %11
  %13 = load ptr, ptr %4, align 8, !tbaa !45
  %14 = getelementptr inbounds nuw %struct.GCRef, ptr %13, i32 0, i32 0
  store i64 %12, ptr %14, align 8, !tbaa !38
  ret void
}

; Function Attrs: alwaysinline nounwind uwtable
define internal void @setgcV(ptr noundef %0, ptr noundef %1, ptr noundef %2, i32 noundef %3) #2 {
  %5 = alloca ptr, align 8
  %6 = alloca ptr, align 8
  %7 = alloca ptr, align 8
  %8 = alloca i32, align 4
  store ptr %0, ptr %5, align 8, !tbaa !4
  store ptr %1, ptr %6, align 8, !tbaa !45
  store ptr %2, ptr %7, align 8, !tbaa !79
  store i32 %3, ptr %8, align 4, !tbaa !11
  %9 = load ptr, ptr %6, align 8, !tbaa !45
  %10 = load ptr, ptr %7, align 8, !tbaa !79
  %11 = load i32, ptr %8, align 4, !tbaa !11
  call void @setgcVraw(ptr noundef %9, ptr noundef %10, i32 noundef %11)
  %12 = load ptr, ptr %5, align 8, !tbaa !4
  %13 = load ptr, ptr %6, align 8, !tbaa !45
  call void @checklivetv(ptr noundef %12, ptr noundef %13, ptr noundef @.str.3)
  ret void
}

; Function Attrs: alwaysinline nounwind uwtable
define internal void @setstrV(ptr noundef %0, ptr noundef %1, ptr noundef %2) #2 {
  %4 = alloca ptr, align 8
  %5 = alloca ptr, align 8
  %6 = alloca ptr, align 8
  store ptr %0, ptr %4, align 8, !tbaa !4
  store ptr %1, ptr %5, align 8, !tbaa !45
  store ptr %2, ptr %6, align 8, !tbaa !46
  %7 = load ptr, ptr %4, align 8, !tbaa !4
  %8 = load ptr, ptr %5, align 8, !tbaa !45
  %9 = load ptr, ptr %6, align 8, !tbaa !46
  call void @setgcV(ptr noundef %7, ptr noundef %8, ptr noundef %9, i32 noundef -5)
  ret void
}

; Function Attrs: nounwind uwtable
define internal void @lex_newline(ptr noundef %0) #0 {
  %2 = alloca ptr, align 8
  %3 = alloca i32, align 4
  store ptr %0, ptr %2, align 8, !tbaa !9
  call void @llvm.lifetime.start.p0(i64 4, ptr %3) #11
  %4 = load ptr, ptr %2, align 8, !tbaa !9
  %5 = getelementptr inbounds nuw %struct.LexState, ptr %4, i32 0, i32 6
  %6 = load i32, ptr %5, align 8, !tbaa !37
  store i32 %6, ptr %3, align 4, !tbaa !11
  %7 = load ptr, ptr %2, align 8, !tbaa !9
  %8 = call i32 @lex_next(ptr noundef %7)
  %9 = load ptr, ptr %2, align 8, !tbaa !9
  %10 = getelementptr inbounds nuw %struct.LexState, ptr %9, i32 0, i32 6
  %11 = load i32, ptr %10, align 8, !tbaa !37
  %12 = icmp eq i32 %11, 10
  br i1 %12, label %18, label %13

13:                                               ; preds = %1
  %14 = load ptr, ptr %2, align 8, !tbaa !9
  %15 = getelementptr inbounds nuw %struct.LexState, ptr %14, i32 0, i32 6
  %16 = load i32, ptr %15, align 8, !tbaa !37
  %17 = icmp eq i32 %16, 13
  br i1 %17, label %18, label %27

18:                                               ; preds = %13, %1
  %19 = load ptr, ptr %2, align 8, !tbaa !9
  %20 = getelementptr inbounds nuw %struct.LexState, ptr %19, i32 0, i32 6
  %21 = load i32, ptr %20, align 8, !tbaa !37
  %22 = load i32, ptr %3, align 4, !tbaa !11
  %23 = icmp ne i32 %21, %22
  br i1 %23, label %24, label %27

24:                                               ; preds = %18
  %25 = load ptr, ptr %2, align 8, !tbaa !9
  %26 = call i32 @lex_next(ptr noundef %25)
  br label %27

27:                                               ; preds = %24, %18, %13
  %28 = load ptr, ptr %2, align 8, !tbaa !9
  %29 = getelementptr inbounds nuw %struct.LexState, ptr %28, i32 0, i32 12
  %30 = load i32, ptr %29, align 8, !tbaa !33
  %31 = add nsw i32 %30, 1
  store i32 %31, ptr %29, align 8, !tbaa !33
  %32 = icmp sge i32 %31, 2147483392
  br i1 %32, label %33, label %38

33:                                               ; preds = %27
  %34 = load ptr, ptr %2, align 8, !tbaa !9
  %35 = load ptr, ptr %2, align 8, !tbaa !9
  %36 = getelementptr inbounds nuw %struct.LexState, ptr %35, i32 0, i32 7
  %37 = load i32, ptr %36, align 4, !tbaa !31
  call void (ptr, i32, i32, ...) @lj_lex_error(ptr noundef %34, i32 noundef %37, i32 noundef 2191) #12
  unreachable

38:                                               ; preds = %27
  call void @llvm.lifetime.end.p0(i64 4, ptr %3) #11
  ret void
}

; Function Attrs: alwaysinline nounwind uwtable
define internal i32 @lex_next(ptr noundef %0) #2 {
  %2 = alloca ptr, align 8
  store ptr %0, ptr %2, align 8, !tbaa !9
  %3 = load ptr, ptr %2, align 8, !tbaa !9
  %4 = getelementptr inbounds nuw %struct.LexState, ptr %3, i32 0, i32 4
  %5 = load ptr, ptr %4, align 8, !tbaa !24
  %6 = load ptr, ptr %2, align 8, !tbaa !9
  %7 = getelementptr inbounds nuw %struct.LexState, ptr %6, i32 0, i32 5
  %8 = load ptr, ptr %7, align 8, !tbaa !25
  %9 = icmp ult ptr %5, %8
  br i1 %9, label %10, label %17

10:                                               ; preds = %1
  %11 = load ptr, ptr %2, align 8, !tbaa !9
  %12 = getelementptr inbounds nuw %struct.LexState, ptr %11, i32 0, i32 4
  %13 = load ptr, ptr %12, align 8, !tbaa !24
  %14 = getelementptr inbounds nuw i8, ptr %13, i32 1
  store ptr %14, ptr %12, align 8, !tbaa !24
  %15 = load i8, ptr %13, align 1, !tbaa !38
  %16 = zext i8 %15 to i32
  br label %20

17:                                               ; preds = %1
  %18 = load ptr, ptr %2, align 8, !tbaa !9
  %19 = call i32 @lex_more(ptr noundef %18)
  br label %20

20:                                               ; preds = %17, %10
  %21 = phi i32 [ %16, %10 ], [ %19, %17 ]
  %22 = load ptr, ptr %2, align 8, !tbaa !9
  %23 = getelementptr inbounds nuw %struct.LexState, ptr %22, i32 0, i32 6
  store i32 %21, ptr %23, align 8, !tbaa !37
  ret i32 %21
}

; Function Attrs: nounwind uwtable
define hidden i32 @lj_lex_setup(ptr noundef %0, ptr noundef %1) #0 {
  %3 = alloca i32, align 4
  %4 = alloca ptr, align 8
  %5 = alloca ptr, align 8
  %6 = alloca i32, align 4
  %7 = alloca i32, align 4
  store ptr %0, ptr %4, align 8, !tbaa !4
  store ptr %1, ptr %5, align 8, !tbaa !9
  call void @llvm.lifetime.start.p0(i64 4, ptr %6) #11
  store i32 0, ptr %6, align 4, !tbaa !11
  %8 = load ptr, ptr %4, align 8, !tbaa !4
  %9 = load ptr, ptr %5, align 8, !tbaa !9
  %10 = getelementptr inbounds nuw %struct.LexState, ptr %9, i32 0, i32 1
  store ptr %8, ptr %10, align 8, !tbaa !13
  %11 = load ptr, ptr %5, align 8, !tbaa !9
  %12 = getelementptr inbounds nuw %struct.LexState, ptr %11, i32 0, i32 0
  store ptr null, ptr %12, align 8, !tbaa !23
  %13 = load ptr, ptr %5, align 8, !tbaa !9
  %14 = getelementptr inbounds nuw %struct.LexState, ptr %13, i32 0, i32 4
  store ptr null, ptr %14, align 8, !tbaa !24
  %15 = load ptr, ptr %5, align 8, !tbaa !9
  %16 = getelementptr inbounds nuw %struct.LexState, ptr %15, i32 0, i32 5
  store ptr null, ptr %16, align 8, !tbaa !25
  %17 = load ptr, ptr %5, align 8, !tbaa !9
  %18 = getelementptr inbounds nuw %struct.LexState, ptr %17, i32 0, i32 17
  store ptr null, ptr %18, align 8, !tbaa !26
  %19 = load ptr, ptr %5, align 8, !tbaa !9
  %20 = getelementptr inbounds nuw %struct.LexState, ptr %19, i32 0, i32 18
  store i32 0, ptr %20, align 8, !tbaa !27
  %21 = load ptr, ptr %5, align 8, !tbaa !9
  %22 = getelementptr inbounds nuw %struct.LexState, ptr %21, i32 0, i32 19
  store i32 0, ptr %22, align 4, !tbaa !28
  %23 = load ptr, ptr %5, align 8, !tbaa !9
  %24 = getelementptr inbounds nuw %struct.LexState, ptr %23, i32 0, i32 20
  store ptr null, ptr %24, align 8, !tbaa !29
  %25 = load ptr, ptr %5, align 8, !tbaa !9
  %26 = getelementptr inbounds nuw %struct.LexState, ptr %25, i32 0, i32 21
  store i32 0, ptr %26, align 8, !tbaa !30
  %27 = load ptr, ptr %5, align 8, !tbaa !9
  %28 = getelementptr inbounds nuw %struct.LexState, ptr %27, i32 0, i32 7
  store i32 0, ptr %28, align 4, !tbaa !31
  %29 = load ptr, ptr %5, align 8, !tbaa !9
  %30 = getelementptr inbounds nuw %struct.LexState, ptr %29, i32 0, i32 8
  store i32 289, ptr %30, align 8, !tbaa !32
  %31 = load ptr, ptr %5, align 8, !tbaa !9
  %32 = getelementptr inbounds nuw %struct.LexState, ptr %31, i32 0, i32 12
  store i32 1, ptr %32, align 8, !tbaa !33
  %33 = load ptr, ptr %5, align 8, !tbaa !9
  %34 = getelementptr inbounds nuw %struct.LexState, ptr %33, i32 0, i32 13
  store i32 1, ptr %34, align 4, !tbaa !34
  %35 = load ptr, ptr %5, align 8, !tbaa !9
  %36 = getelementptr inbounds nuw %struct.LexState, ptr %35, i32 0, i32 23
  store i32 0, ptr %36, align 8, !tbaa !35
  %37 = load ptr, ptr %5, align 8, !tbaa !9
  %38 = getelementptr inbounds nuw %struct.LexState, ptr %37, i32 0, i32 24
  store i32 1, ptr %38, align 4, !tbaa !36
  %39 = load ptr, ptr %5, align 8, !tbaa !9
  %40 = call i32 @lex_next(ptr noundef %39)
  %41 = load ptr, ptr %5, align 8, !tbaa !9
  %42 = getelementptr inbounds nuw %struct.LexState, ptr %41, i32 0, i32 6
  %43 = load i32, ptr %42, align 8, !tbaa !37
  %44 = icmp eq i32 %43, 239
  br i1 %44, label %45, label %77

45:                                               ; preds = %2
  %46 = load ptr, ptr %5, align 8, !tbaa !9
  %47 = getelementptr inbounds nuw %struct.LexState, ptr %46, i32 0, i32 4
  %48 = load ptr, ptr %47, align 8, !tbaa !24
  %49 = getelementptr inbounds i8, ptr %48, i64 2
  %50 = load ptr, ptr %5, align 8, !tbaa !9
  %51 = getelementptr inbounds nuw %struct.LexState, ptr %50, i32 0, i32 5
  %52 = load ptr, ptr %51, align 8, !tbaa !25
  %53 = icmp ule ptr %49, %52
  br i1 %53, label %54, label %77

54:                                               ; preds = %45
  %55 = load ptr, ptr %5, align 8, !tbaa !9
  %56 = getelementptr inbounds nuw %struct.LexState, ptr %55, i32 0, i32 4
  %57 = load ptr, ptr %56, align 8, !tbaa !24
  %58 = getelementptr inbounds i8, ptr %57, i64 0
  %59 = load i8, ptr %58, align 1, !tbaa !38
  %60 = zext i8 %59 to i32
  %61 = icmp eq i32 %60, 187
  br i1 %61, label %62, label %77

62:                                               ; preds = %54
  %63 = load ptr, ptr %5, align 8, !tbaa !9
  %64 = getelementptr inbounds nuw %struct.LexState, ptr %63, i32 0, i32 4
  %65 = load ptr, ptr %64, align 8, !tbaa !24
  %66 = getelementptr inbounds i8, ptr %65, i64 1
  %67 = load i8, ptr %66, align 1, !tbaa !38
  %68 = zext i8 %67 to i32
  %69 = icmp eq i32 %68, 191
  br i1 %69, label %70, label %77

70:                                               ; preds = %62
  %71 = load ptr, ptr %5, align 8, !tbaa !9
  %72 = getelementptr inbounds nuw %struct.LexState, ptr %71, i32 0, i32 4
  %73 = load ptr, ptr %72, align 8, !tbaa !24
  %74 = getelementptr inbounds i8, ptr %73, i64 2
  store ptr %74, ptr %72, align 8, !tbaa !24
  %75 = load ptr, ptr %5, align 8, !tbaa !9
  %76 = call i32 @lex_next(ptr noundef %75)
  store i32 1, ptr %6, align 4, !tbaa !11
  br label %77

77:                                               ; preds = %70, %62, %54, %45, %2
  %78 = load ptr, ptr %5, align 8, !tbaa !9
  %79 = getelementptr inbounds nuw %struct.LexState, ptr %78, i32 0, i32 6
  %80 = load i32, ptr %79, align 8, !tbaa !37
  %81 = icmp eq i32 %80, 35
  br i1 %81, label %82, label %107

82:                                               ; preds = %77
  br label %83

83:                                               ; preds = %102, %82
  %84 = load ptr, ptr %5, align 8, !tbaa !9
  %85 = call i32 @lex_next(ptr noundef %84)
  %86 = load ptr, ptr %5, align 8, !tbaa !9
  %87 = getelementptr inbounds nuw %struct.LexState, ptr %86, i32 0, i32 6
  %88 = load i32, ptr %87, align 8, !tbaa !37
  %89 = icmp eq i32 %88, -1
  br i1 %89, label %90, label %91

90:                                               ; preds = %83
  store i32 0, ptr %3, align 4
  store i32 1, ptr %7, align 4
  br label %128

91:                                               ; preds = %83
  br label %92

92:                                               ; preds = %91
  %93 = load ptr, ptr %5, align 8, !tbaa !9
  %94 = getelementptr inbounds nuw %struct.LexState, ptr %93, i32 0, i32 6
  %95 = load i32, ptr %94, align 8, !tbaa !37
  %96 = icmp eq i32 %95, 10
  br i1 %96, label %102, label %97

97:                                               ; preds = %92
  %98 = load ptr, ptr %5, align 8, !tbaa !9
  %99 = getelementptr inbounds nuw %struct.LexState, ptr %98, i32 0, i32 6
  %100 = load i32, ptr %99, align 8, !tbaa !37
  %101 = icmp eq i32 %100, 13
  br label %102

102:                                              ; preds = %97, %92
  %103 = phi i1 [ true, %92 ], [ %101, %97 ]
  %104 = xor i1 %103, true
  br i1 %104, label %83, label %105, !llvm.loop !39

105:                                              ; preds = %102
  %106 = load ptr, ptr %5, align 8, !tbaa !9
  call void @lex_newline(ptr noundef %106)
  store i32 1, ptr %6, align 4, !tbaa !11
  br label %107

107:                                              ; preds = %105, %77
  %108 = load ptr, ptr %5, align 8, !tbaa !9
  %109 = getelementptr inbounds nuw %struct.LexState, ptr %108, i32 0, i32 6
  %110 = load i32, ptr %109, align 8, !tbaa !37
  %111 = load i8, ptr @.str, align 1, !tbaa !38
  %112 = sext i8 %111 to i32
  %113 = icmp eq i32 %110, %112
  br i1 %113, label %114, label %127

114:                                              ; preds = %107
  %115 = load i32, ptr %6, align 4, !tbaa !11
  %116 = icmp ne i32 %115, 0
  br i1 %116, label %117, label %126

117:                                              ; preds = %114
  %118 = load ptr, ptr %4, align 8, !tbaa !4
  %119 = load ptr, ptr %4, align 8, !tbaa !4
  %120 = getelementptr inbounds nuw %struct.lua_State, ptr %119, i32 0, i32 8
  %121 = load ptr, ptr %120, align 8, !tbaa !41
  %122 = getelementptr inbounds nuw %union.TValue, ptr %121, i32 1
  store ptr %122, ptr %120, align 8, !tbaa !41
  %123 = load ptr, ptr %4, align 8, !tbaa !4
  %124 = call ptr @lj_err_str(ptr noundef %123, i32 noundef 2985)
  call void @setstrV(ptr noundef %118, ptr noundef %121, ptr noundef %124)
  %125 = load ptr, ptr %4, align 8, !tbaa !4
  call void @lj_err_throw(ptr noundef %125, i32 noundef 3) #12
  unreachable

126:                                              ; preds = %114
  store i32 1, ptr %3, align 4
  store i32 1, ptr %7, align 4
  br label %128

127:                                              ; preds = %107
  store i32 0, ptr %3, align 4
  store i32 1, ptr %7, align 4
  br label %128

128:                                              ; preds = %127, %126, %90
  call void @llvm.lifetime.end.p0(i64 4, ptr %6) #11
  %129 = load i32, ptr %3, align 4
  ret i32 %129
}