; Function Attrs: nounwind uwtable
define hidden range(i32 0, 2) i32 @lj_lex_setup(ptr noundef %0, ptr noundef initializes((0, 16), (32, 48), (52, 60), (112, 120), (144, 172), (176, 184)) %1) local_unnamed_addr #0 {
lex_next.exit:
  %2 = getelementptr inbounds nuw i8, ptr %1, i64 8
  store ptr %0, ptr %2, align 8, !tbaa !4
  store ptr null, ptr %1, align 8, !tbaa !19
  %3 = getelementptr inbounds nuw i8, ptr %1, i64 32
  %4 = getelementptr inbounds nuw i8, ptr %1, i64 40
  %5 = getelementptr inbounds nuw i8, ptr %1, i64 144
  %6 = getelementptr inbounds nuw i8, ptr %1, i64 52
  store i32 0, ptr %6, align 4, !tbaa !20
  %7 = getelementptr inbounds nuw i8, ptr %1, i64 56
  tail call void @llvm.memset.p0.i64(ptr noundef nonnull align 8 dereferenceable(16) %3, i8 0, i64 16, i1 false)
  tail call void @llvm.memset.p0.i64(ptr noundef nonnull align 8 dereferenceable(28) %5, i8 0, i64 28, i1 false)
  store i32 289, ptr %7, align 8, !tbaa !21
  %8 = getelementptr inbounds nuw i8, ptr %1, i64 112
  store i32 1, ptr %8, align 8, !tbaa !22
  %9 = getelementptr inbounds nuw i8, ptr %1, i64 116
  store i32 1, ptr %9, align 4, !tbaa !23
  %10 = getelementptr inbounds nuw i8, ptr %1, i64 176
  store i32 0, ptr %10, align 8, !tbaa !24
  %11 = getelementptr inbounds nuw i8, ptr %1, i64 180
  store i32 1, ptr %11, align 4, !tbaa !25
  %12 = tail call fastcc i32 @lex_more(ptr noundef nonnull %1)
  %13 = getelementptr inbounds nuw i8, ptr %1, i64 48
  store i32 %12, ptr %13, align 8, !tbaa !26
  %14 = icmp ne i32 %12, 239
  br i1 %14, label %thread-pre-split, label %15

15:                                               ; preds = %lex_next.exit
  %16 = load ptr, ptr %3, align 8, !tbaa !27
  %17 = getelementptr inbounds nuw i8, ptr %16, i64 2
  %18 = load ptr, ptr %4, align 8, !tbaa !28
  %.not = icmp ugt ptr %17, %18
  br i1 %.not, label %.loopexit, label %19

19:                                               ; preds = %15
  %20 = load i8, ptr %16, align 1, !tbaa !29
  %21 = icmp eq i8 %20, -69
  br i1 %21, label %22, label %.loopexit

22:                                               ; preds = %19
  %23 = getelementptr inbounds nuw i8, ptr %16, i64 1
  %24 = load i8, ptr %23, align 1, !tbaa !29
  %25 = icmp eq i8 %24, -65
  br i1 %25, label %26, label %.loopexit

26:                                               ; preds = %22
  store ptr %17, ptr %3, align 8, !tbaa !27
  %27 = icmp ult ptr %17, %18
  br i1 %27, label %28, label %32

28:                                               ; preds = %26
  %29 = getelementptr inbounds nuw i8, ptr %16, i64 3
  store ptr %29, ptr %3, align 8, !tbaa !27
  %30 = load i8, ptr %17, align 1, !tbaa !29
  %31 = zext i8 %30 to i32
  br label %lex_next.exit40

32:                                               ; preds = %26
  %33 = tail call fastcc i32 @lex_more(ptr noundef nonnull %1)
  br label %lex_next.exit40

lex_next.exit40:                                  ; preds = %28, %32
  %34 = phi i32 [ %31, %28 ], [ %33, %32 ]
  store i32 %34, ptr %13, align 8, !tbaa !26
  br label %thread-pre-split

thread-pre-split:                                 ; preds = %lex_next.exit40, %lex_next.exit
  %35 = phi i32 [ %34, %lex_next.exit40 ], [ %12, %lex_next.exit ]
  %36 = icmp eq i32 %35, 35
  br i1 %36, label %.critedge, label %lex_newline.exit

.critedge:                                        ; preds = %thread-pre-split, %lex_next.exit41
  %37 = load ptr, ptr %3, align 8, !tbaa !27
  %38 = load ptr, ptr %4, align 8, !tbaa !28
  %39 = icmp ult ptr %37, %38
  br i1 %39, label %40, label %44

40:                                               ; preds = %.critedge
  %41 = getelementptr inbounds nuw i8, ptr %37, i64 1
  store ptr %41, ptr %3, align 8, !tbaa !27
  %42 = load i8, ptr %37, align 1, !tbaa !29
  %43 = zext i8 %42 to i32
  br label %lex_next.exit41

44:                                               ; preds = %.critedge
  %45 = tail call fastcc i32 @lex_more(ptr noundef nonnull %1)
  br label %lex_next.exit41

lex_next.exit41:                                  ; preds = %40, %44
  %46 = phi i32 [ %43, %40 ], [ %45, %44 ]
  store i32 %46, ptr %13, align 8, !tbaa !26
  switch i32 %46, label %.critedge [
    i32 -1, label %.loopexit
    i32 10, label %switch.edge
    i32 13, label %switch.edge
  ]

switch.edge:                                      ; preds = %lex_next.exit41, %lex_next.exit41
  %47 = load ptr, ptr %3, align 8, !tbaa !27
  %48 = load ptr, ptr %4, align 8, !tbaa !28
  %49 = icmp ult ptr %47, %48
  br i1 %49, label %50, label %54

50:                                               ; preds = %switch.edge
  %51 = getelementptr inbounds nuw i8, ptr %47, i64 1
  store ptr %51, ptr %3, align 8, !tbaa !27
  %52 = load i8, ptr %47, align 1, !tbaa !29
  %53 = zext i8 %52 to i32
  br label %lex_next.exit9.i

54:                                               ; preds = %switch.edge
  %55 = tail call fastcc i32 @lex_more(ptr noundef nonnull %1)
  br label %lex_next.exit9.i

lex_next.exit9.i:                                 ; preds = %54, %50
  %56 = phi i32 [ %53, %50 ], [ %55, %54 ]
  store i32 %56, ptr %13, align 8, !tbaa !26
  switch i32 %56, label %69 [
    i32 10, label %57
    i32 13, label %57
  ]

57:                                               ; preds = %lex_next.exit9.i, %lex_next.exit9.i
  %.not.i = icmp eq i32 %56, %46
  br i1 %.not.i, label %69, label %58

58:                                               ; preds = %57
  %59 = load ptr, ptr %3, align 8, !tbaa !27
  %60 = load ptr, ptr %4, align 8, !tbaa !28
  %61 = icmp ult ptr %59, %60
  br i1 %61, label %62, label %66

62:                                               ; preds = %58
  %63 = getelementptr inbounds nuw i8, ptr %59, i64 1
  store ptr %63, ptr %3, align 8, !tbaa !27
  %64 = load i8, ptr %59, align 1, !tbaa !29
  %65 = zext i8 %64 to i32
  br label %lex_next.exit.i

66:                                               ; preds = %58
  %67 = tail call fastcc i32 @lex_more(ptr noundef nonnull %1)
  br label %lex_next.exit.i

lex_next.exit.i:                                  ; preds = %66, %62
  %68 = phi i32 [ %65, %62 ], [ %67, %66 ]
  store i32 %68, ptr %13, align 8, !tbaa !26
  br label %69

69:                                               ; preds = %lex_next.exit.i, %57, %lex_next.exit9.i
  %70 = phi i32 [ %68, %lex_next.exit.i ], [ %46, %57 ], [ %56, %lex_next.exit9.i ]
  %71 = load i32, ptr %8, align 8, !tbaa !22
  %72 = add nsw i32 %71, 1
  store i32 %72, ptr %8, align 8, !tbaa !22
  %73 = icmp sgt i32 %71, 2147483390
  br i1 %73, label %74, label %lex_newline.exit.thread

74:                                               ; preds = %69
  %75 = load i32, ptr %6, align 4, !tbaa !20
  tail call void (ptr, i32, i32, ...) @lj_lex_error(ptr noundef nonnull %1, i32 noundef %75, i32 noundef 2191) #10
  unreachable

lex_newline.exit:                                 ; preds = %thread-pre-split
  %76 = icmp ne i32 %35, 27
  %brmerge = or i1 %14, %76
  %not. = xor i1 %76, true
  %.mux = zext i1 %not. to i32
  br i1 %brmerge, label %.loopexit, label %.thread

lex_newline.exit.thread:                          ; preds = %69
  %77 = icmp eq i32 %70, 27
  br i1 %77, label %.thread, label %.loopexit

.thread:                                          ; preds = %lex_newline.exit, %lex_newline.exit.thread
  %78 = getelementptr inbounds nuw i8, ptr %0, i64 40
  %79 = load ptr, ptr %78, align 8, !tbaa !30
  %80 = getelementptr inbounds nuw i8, ptr %79, i64 8
  store ptr %80, ptr %78, align 8, !tbaa !30
  %81 = tail call ptr @lj_err_str(ptr noundef %0, i32 noundef 2985) #11
  %82 = ptrtoint ptr %81 to i64
  %83 = or i64 %82, -703687441776640
  store i64 %83, ptr %79, align 8, !tbaa !29
  tail call void @lj_err_throw(ptr noundef %0, i32 noundef 3) #12
  unreachable

.loopexit:                                        ; preds = %lex_next.exit41, %15, %19, %22, %lex_newline.exit, %lex_newline.exit.thread
  %.036 = phi i32 [ %.mux, %lex_newline.exit ], [ 0, %lex_newline.exit.thread ], [ 0, %22 ], [ 0, %19 ], [ 0, %15 ], [ 0, %lex_next.exit41 ]
  ret i32 %.036
}